target datalayout = "e-m:e-p270:32:32-p271:32:32-p272:64:64-i64:64-i128:128-f80:128-n8:16:32:64-S128"
target triple = "x86_64-pc-linux-gnu"

; Function Attrs: nounwind uwtable
define hidden i64 @internal_rle_compress(ptr noundef %0, i64 noundef %1, ptr noundef %2, i64 noundef %3) #0 {
  %5 = alloca ptr, align 8
  %6 = alloca i64, align 8
  %7 = alloca ptr, align 8
  %8 = alloca i64, align 8
  %9 = alloca ptr, align 8
  %10 = alloca ptr, align 8
  %11 = alloca ptr, align 8
  %12 = alloca ptr, align 8
  %13 = alloca i64, align 8
  %14 = alloca i8, align 1
  %15 = alloca i32, align 4
  store ptr %0, ptr %5, align 8, !tbaa !3
  store i64 %1, ptr %6, align 8, !tbaa !7
  store ptr %2, ptr %7, align 8, !tbaa !3
  store i64 %3, ptr %8, align 8, !tbaa !7
  call void @llvm.lifetime.start.p0(i64 8, ptr %9) #5
  %16 = load ptr, ptr %5, align 8, !tbaa !3
  store ptr %16, ptr %9, align 8, !tbaa !9
  call void @llvm.lifetime.start.p0(i64 8, ptr %10) #5
  %17 = load ptr, ptr %7, align 8, !tbaa !3
  store ptr %17, ptr %10, align 8, !tbaa !9
  call void @llvm.lifetime.start.p0(i64 8, ptr %11) #5
  %18 = load ptr, ptr %10, align 8, !tbaa !9
  %19 = load i64, ptr %8, align 8, !tbaa !7
  %20 = getelementptr inbounds nuw i8, ptr %18, i64 %19
  store ptr %20, ptr %11, align 8, !tbaa !9
  call void @llvm.lifetime.start.p0(i64 8, ptr %12) #5
  %21 = load ptr, ptr %10, align 8, !tbaa !9
  %22 = getelementptr inbounds i8, ptr %21, i64 1
  store ptr %22, ptr %12, align 8, !tbaa !9
  call void @llvm.lifetime.start.p0(i64 8, ptr %13) #5
  store i64 0, ptr %13, align 8, !tbaa !7
  br label %23

23:                                               ; preds = %147, %4
  %24 = load ptr, ptr %10, align 8, !tbaa !9
  %25 = load ptr, ptr %11, align 8, !tbaa !9
  %26 = icmp ult ptr %24, %25
  br i1 %26, label %27, label %148

27:                                               ; preds = %23
  call void @llvm.lifetime.start.p0(i64 1, ptr %14) #5
  store i8 0, ptr %14, align 1, !tbaa !11
  br label %28

28:                                               ; preds = %46, %27
  %29 = load ptr, ptr %12, align 8, !tbaa !9
  %30 = load ptr, ptr %11, align 8, !tbaa !9
  %31 = icmp ult ptr %29, %30
  br i1 %31, label %32, label %44

32:                                               ; preds = %28
  %33 = load ptr, ptr %10, align 8, !tbaa !9
  %34 = load i8, ptr %33, align 1, !tbaa !11
  %35 = sext i8 %34 to i32
  %36 = load ptr, ptr %12, align 8, !tbaa !9
  %37 = load i8, ptr %36, align 1, !tbaa !11
  %38 = sext i8 %37 to i32
  %39 = icmp eq i32 %35, %38
  br i1 %39, label %40, label %44

40:                                               ; preds = %32
  %41 = load i8, ptr %14, align 1, !tbaa !11
  %42 = zext i8 %41 to i32
  %43 = icmp slt i32 %42, 127
  br label %44

44:                                               ; preds = %40, %32, %28
  %45 = phi i1 [ false, %32 ], [ false, %28 ], [ %43, %40 ]
  br i1 %45, label %46, label %51

46:                                               ; preds = %44
  %47 = load ptr, ptr %12, align 8, !tbaa !9
  %48 = getelementptr inbounds nuw i8, ptr %47, i32 1
  store ptr %48, ptr %12, align 8, !tbaa !9
  %49 = load i8, ptr %14, align 1, !tbaa !11
  %50 = add i8 %49, 1
  store i8 %50, ptr %14, align 1, !tbaa !11
  br label %28, !llvm.loop !12

51:                                               ; preds = %44
  %52 = load i8, ptr %14, align 1, !tbaa !11
  %53 = zext i8 %52 to i32
  %54 = icmp sge i32 %53, 2
  br i1 %54, label %55, label %68

55:                                               ; preds = %51
  %56 = load i8, ptr %14, align 1, !tbaa !11
  %57 = load ptr, ptr %9, align 8, !tbaa !9
  %58 = load i64, ptr %13, align 8, !tbaa !7
  %59 = add i64 %58, 1
  store i64 %59, ptr %13, align 8, !tbaa !7
  %60 = getelementptr inbounds nuw i8, ptr %57, i64 %58
  store i8 %56, ptr %60, align 1, !tbaa !11
  %61 = load ptr, ptr %10, align 8, !tbaa !9
  %62 = load i8, ptr %61, align 1, !tbaa !11
  %63 = load ptr, ptr %9, align 8, !tbaa !9
  %64 = load i64, ptr %13, align 8, !tbaa !7
  %65 = add i64 %64, 1
  store i64 %65, ptr %13, align 8, !tbaa !7
  %66 = getelementptr inbounds nuw i8, ptr %63, i64 %64
  store i8 %62, ptr %66, align 1, !tbaa !11
  %67 = load ptr, ptr %12, align 8, !tbaa !9
  store ptr %67, ptr %10, align 8, !tbaa !9
  br label %137

68:                                               ; preds = %51
  %69 = load i8, ptr %14, align 1, !tbaa !11
  %70 = add i8 %69, 1
  store i8 %70, ptr %14, align 1, !tbaa !11
  br label %71

71:                                               ; preds = %110, %68
  %72 = load ptr, ptr %12, align 8, !tbaa !9
  %73 = load ptr, ptr %11, align 8, !tbaa !9
  %74 = icmp ult ptr %72, %73
  br i1 %74, label %75, label %108

75:                                               ; preds = %71
  %76 = load ptr, ptr %12, align 8, !tbaa !9
  %77 = getelementptr inbounds i8, ptr %76, i64 1
  %78 = load ptr, ptr %11, align 8, !tbaa !9
  %79 = icmp uge ptr %77, %78
  br i1 %79, label %104, label %80

80:                                               ; preds = %75
  %81 = load ptr, ptr %12, align 8, !tbaa !9
  %82 = load i8, ptr %81, align 1, !tbaa !11
  %83 = sext i8 %82 to i32
  %84 = load ptr, ptr %12, align 8, !tbaa !9
  %85 = getelementptr inbounds i8, ptr %84, i64 1
  %86 = load i8, ptr %85, align 1, !tbaa !11
  %87 = sext i8 %86 to i32
  %88 = icmp ne i32 %83, %87
  br i1 %88, label %104, label %89

89:                                               ; preds = %80
  %90 = load ptr, ptr %12, align 8, !tbaa !9
  %91 = getelementptr inbounds i8, ptr %90, i64 2
  %92 = load ptr, ptr %11, align 8, !tbaa !9
  %93 = icmp uge ptr %91, %92
  br i1 %93, label %104, label %94

94:                                               ; preds = %89
  %95 = load ptr, ptr %12, align 8, !tbaa !9
  %96 = getelementptr inbounds i8, ptr %95, i64 1
  %97 = load i8, ptr %96, align 1, !tbaa !11
  %98 = sext i8 %97 to i32
  %99 = load ptr, ptr %12, align 8, !tbaa !9
  %100 = getelementptr inbounds i8, ptr %99, i64 2
  %101 = load i8, ptr %100, align 1, !tbaa !11
  %102 = sext i8 %101 to i32
  %103 = icmp ne i32 %98, %102
  br i1 %103, label %104, label %108

104:                                              ; preds = %94, %89, %80, %75
  %105 = load i8, ptr %14, align 1, !tbaa !11
  %106 = zext i8 %105 to i32
  %107 = icmp slt i32 %106, 127
  br label %108

108:                                              ; preds = %104, %94, %71
  %109 = phi i1 [ false, %94 ], [ false, %71 ], [ %107, %104 ]
  br i1 %109, label %110, label %115

110:                                              ; preds = %108
  %111 = load i8, ptr %14, align 1, !tbaa !11
  %112 = add i8 %111, 1
  store i8 %112, ptr %14, align 1, !tbaa !11
  %113 = load ptr, ptr %12, align 8, !tbaa !9
  %114 = getelementptr inbounds nuw i8, ptr %113, i32 1
  store ptr %114, ptr %12, align 8, !tbaa !9
  br label %71, !llvm.loop !14

115:                                              ; preds = %108
  %116 = load i8, ptr %14, align 1, !tbaa !11
  %117 = zext i8 %116 to i32
  %118 = sub nsw i32 0, %117
  %119 = trunc i32 %118 to i8
  %120 = load ptr, ptr %9, align 8, !tbaa !9
  %121 = load i64, ptr %13, align 8, !tbaa !7
  %122 = add i64 %121, 1
  store i64 %122, ptr %13, align 8, !tbaa !7
  %123 = getelementptr inbounds nuw i8, ptr %120, i64 %121
  store i8 %119, ptr %123, align 1, !tbaa !11
  br label %124

124:                                              ; preds = %128, %115
  %125 = load ptr, ptr %10, align 8, !tbaa !9
  %126 = load ptr, ptr %12, align 8, !tbaa !9
  %127 = icmp ult ptr %125, %126
  br i1 %127, label %128, label %136

128:                                              ; preds = %124
  %129 = load ptr, ptr %10, align 8, !tbaa !9
  %130 = getelementptr inbounds nuw i8, ptr %129, i32 1
  store ptr %130, ptr %10, align 8, !tbaa !9
  %131 = load i8, ptr %129, align 1, !tbaa !11
  %132 = load ptr, ptr %9, align 8, !tbaa !9
  %133 = load i64, ptr %13, align 8, !tbaa !7
  %134 = add i64 %133, 1
  store i64 %134, ptr %13, align 8, !tbaa !7
  %135 = getelementptr inbounds nuw i8, ptr %132, i64 %133
  store i8 %131, ptr %135, align 1, !tbaa !11
  br label %124, !llvm.loop !15

136:                                              ; preds = %124
  br label %137

137:                                              ; preds = %136, %55
  %138 = load ptr, ptr %12, align 8, !tbaa !9
  %139 = getelementptr inbounds nuw i8, ptr %138, i32 1
  store ptr %139, ptr %12, align 8, !tbaa !9
  %140 = load i64, ptr %13, align 8, !tbaa !7
  %141 = load i64, ptr %6, align 8, !tbaa !7
  %142 = icmp uge i64 %140, %141
  br i1 %142, label %143, label %144

143:                                              ; preds = %137
  store i32 3, ptr %15, align 4
  br label %145

144:                                              ; preds = %137
  store i32 0, ptr %15, align 4
  br label %145

145:                                              ; preds = %144, %143
  call void @llvm.lifetime.end.p0(i64 1, ptr %14) #5
  %146 = load i32, ptr %15, align 4
  switch i32 %146, label %150 [
    i32 0, label %147
    i32 3, label %148
  ]

147:                                              ; preds = %145
  br label %23, !llvm.loop !16

148:                                              ; preds = %145, %23
  %149 = load i64, ptr %13, align 8, !tbaa !7
  store i32 1, ptr %15, align 4
  call void @llvm.lifetime.end.p0(i64 8, ptr %13) #5
  call void @llvm.lifetime.end.p0(i64 8, ptr %12) #5
  call void @llvm.lifetime.end.p0(i64 8, ptr %11) #5
  call void @llvm.lifetime.end.p0(i64 8, ptr %10) #5
  call void @llvm.lifetime.end.p0(i64 8, ptr %9) #5
  ret i64 %149

150:                                              ; preds = %145
  unreachable
}