; Function Attrs: nofree norecurse nosync nounwind memory(read, argmem: readwrite, inaccessiblemem: none) uwtable
define hidden i64 @internal_rle_compress(ptr noundef writeonly captures(none) %0, i64 noundef %1, ptr noundef readonly %2, i64 noundef %3) local_unnamed_addr #0 {
  %5 = getelementptr inbounds nuw i8, ptr %2, i64 %3
  br label %6

6:                                                ; preds = %.loopexit, %4
  %.063 = phi ptr [ %2, %4 ], [ %.164, %.loopexit ]
  %.pn = phi ptr [ %2, %4 ], [ %.261, %.loopexit ]
  %.057 = phi i64 [ 0, %4 ], [ %.2, %.loopexit ]
  %.063102 = ptrtoint ptr %.063 to i64
  %7 = icmp ult ptr %.063, %5
  br i1 %7, label %.preheader73, label %43

.preheader73:                                     ; preds = %6
  %.16074 = getelementptr inbounds nuw i8, ptr %.pn, i64 1
  %8 = icmp ult ptr %.16074, %5
  br i1 %8, label %.lr.ph, label %.preheader

.lr.ph:                                           ; preds = %.preheader73
  %9 = load i8, ptr %.063, align 1, !tbaa !3
  br label %10

10:                                               ; preds = %.lr.ph, %14
  %.16076 = phi ptr [ %.16074, %.lr.ph ], [ %.160, %14 ]
  %.05675 = phi i8 [ 0, %.lr.ph ], [ %15, %14 ]
  %11 = load i8, ptr %.16076, align 1, !tbaa !3
  %12 = icmp eq i8 %9, %11
  %13 = icmp ne i8 %.05675, 127
  %or.cond = select i1 %12, i1 %13, i1 false
  br i1 %or.cond, label %14, label %.critedge

14:                                               ; preds = %10
  %15 = add nuw nsw i8 %.05675, 1
  %.160 = getelementptr inbounds nuw i8, ptr %.16076, i64 1
  %16 = icmp ult ptr %.160, %5
  br i1 %16, label %10, label %.critedge, !llvm.loop !6

.critedge:                                        ; preds = %14, %10
  %.056.lcssa = phi i8 [ %15, %14 ], [ %.05675, %10 ]
  %.160.lcssa = phi ptr [ %.160, %14 ], [ %.16076, %10 ]
  %17 = icmp samesign ugt i8 %.056.lcssa, 1
  br i1 %17, label %19, label %.preheader

.preheader:                                       ; preds = %.preheader73, %.critedge
  %.160.lcssa106 = phi ptr [ %.160.lcssa, %.critedge ], [ %.16074, %.preheader73 ]
  %.056.lcssa105 = phi i8 [ %.056.lcssa, %.critedge ], [ 0, %.preheader73 ]
  %18 = icmp ult ptr %.160.lcssa106, %5
  br i1 %18, label %.lr.ph85, label %.critedge2

19:                                               ; preds = %.critedge
  %20 = getelementptr inbounds nuw i8, ptr %0, i64 %.057
  store i8 %.056.lcssa, ptr %20, align 1, !tbaa !3
  %21 = load i8, ptr %.063, align 1, !tbaa !3
  %22 = add i64 %.057, 2
  %23 = getelementptr i8, ptr %20, i64 1
  store i8 %21, ptr %23, align 1, !tbaa !3
  br label %.loopexit

.lr.ph85:                                         ; preds = %.preheader, %.lr.ph85.backedge
  %.1.in83 = phi i8 [ %.184, %.lr.ph85.backedge ], [ %.056.lcssa105, %.preheader ]
  %.36282 = phi ptr [ %24, %.lr.ph85.backedge ], [ %.160.lcssa106, %.preheader ]
  %.184 = add nuw nsw i8 %.1.in83, 1
  %24 = getelementptr inbounds nuw i8, ptr %.36282, i64 1
  %.not = icmp uge ptr %24, %5
  br i1 %.not, label %34, label %25

25:                                               ; preds = %.lr.ph85
  %26 = load i8, ptr %.36282, align 1, !tbaa !3
  %27 = load i8, ptr %24, align 1, !tbaa !3
  %.not70 = icmp eq i8 %26, %27
  br i1 %.not70, label %28, label %34

28:                                               ; preds = %25
  %29 = getelementptr inbounds nuw i8, ptr %.36282, i64 2
  %.not71 = icmp ult ptr %29, %5
  br i1 %.not71, label %30, label %34

30:                                               ; preds = %28
  %31 = load i8, ptr %29, align 1, !tbaa !3
  %32 = icmp eq i8 %26, %31
  %33 = icmp eq i8 %.184, 127
  %or.cond7.not112 = select i1 %32, i1 true, i1 %33
  br i1 %or.cond7.not112, label %.critedge2, label %.lr.ph85.backedge

.lr.ph85.backedge:                                ; preds = %30, %34
  br label %.lr.ph85

34:                                               ; preds = %28, %25, %.lr.ph85
  %.old6.not = icmp eq i8 %.184, 127
  %brmerge108 = or i1 %.old6.not, %.not
  br i1 %brmerge108, label %.critedge2.loopexit.split.loop.exit, label %.lr.ph85.backedge

.critedge2.loopexit.split.loop.exit:              ; preds = %34
  %.36282.mux109.le = select i1 %.old6.not, ptr %.36282, ptr %24
  %.mux.le = tail call i8 @llvm.smin.i8(i8 %.184, i8 126)
  br label %.critedge2

.critedge2:                                       ; preds = %.critedge2.loopexit.split.loop.exit, %30, %.preheader
  %.362.lcssa = phi ptr [ %.160.lcssa106, %.preheader ], [ %.36282.mux109.le, %.critedge2.loopexit.split.loop.exit ], [ %.36282, %30 ]
  %.1.in.lcssa = phi i8 [ %.056.lcssa105, %.preheader ], [ %.mux.le, %.critedge2.loopexit.split.loop.exit ], [ %.1.in83, %30 ]
  %35 = xor i8 %.1.in.lcssa, -1
  %36 = getelementptr inbounds nuw i8, ptr %0, i64 %.057
  store i8 %35, ptr %36, align 1, !tbaa !3
  %.394 = add i64 %.057, 1
  %37 = icmp ult ptr %.063, %.362.lcssa
  br i1 %37, label %.lr.ph97.preheader, label %.loopexit

.lr.ph97.preheader:                               ; preds = %.critedge2
  %.362.lcssa101 = ptrtoint ptr %.362.lcssa to i64
  %38 = add i64 %.394, %.362.lcssa101
  %39 = sub i64 %38, %.063102
  br label %.lr.ph97

.lr.ph97:                                         ; preds = %.lr.ph97.preheader, %.lr.ph97
  %.396 = phi i64 [ %.3, %.lr.ph97 ], [ %.394, %.lr.ph97.preheader ]
  %.26595 = phi ptr [ %40, %.lr.ph97 ], [ %.063, %.lr.ph97.preheader ]
  %40 = getelementptr inbounds nuw i8, ptr %.26595, i64 1
  %41 = load i8, ptr %.26595, align 1, !tbaa !3
  %42 = getelementptr inbounds nuw i8, ptr %0, i64 %.396
  store i8 %41, ptr %42, align 1, !tbaa !3
  %.3 = add i64 %.396, 1
  %exitcond.not = icmp eq i64 %.3, %39
  br i1 %exitcond.not, label %.loopexit, label %.lr.ph97, !llvm.loop !8

.loopexit:                                        ; preds = %.lr.ph97, %.critedge2, %19
  %.164 = phi ptr [ %.160.lcssa, %19 ], [ %.063, %.critedge2 ], [ %40, %.lr.ph97 ]
  %.261 = phi ptr [ %.160.lcssa, %19 ], [ %.362.lcssa, %.critedge2 ], [ %.362.lcssa, %.lr.ph97 ]
  %.2 = phi i64 [ %22, %19 ], [ %.394, %.critedge2 ], [ %39, %.lr.ph97 ]
  %.not72 = icmp ult i64 %.2, %1
  br i1 %.not72, label %6, label %43

43:                                               ; preds = %.loopexit, %6
  %.158 = phi i64 [ %.2, %.loopexit ], [ %.057, %6 ]
  ret i64 %.158
}